ARM GAS  C:\Users\DELL\AppData\Local\Temp\ccWabQ1D.s 			page 1


   1              		.syntax unified
   2              		.cpu cortex-m3
   3              		.fpu softvfp
   4              		.eabi_attribute 20, 1
   5              		.eabi_attribute 21, 1
   6              		.eabi_attribute 23, 3
   7              		.eabi_attribute 24, 1
   8              		.eabi_attribute 25, 1
   9              		.eabi_attribute 26, 1
  10              		.eabi_attribute 30, 1
  11              		.eabi_attribute 34, 1
  12              		.eabi_attribute 18, 4
  13              		.thumb
  14              		.syntax unified
  15              		.file	"main.c"
  16              		.text
  17              	.Ltext0:
  18              		.cfi_sections	.debug_frame
  19              		.section	.text.main,"ax",%progbits
  20              		.align	2
  21              		.global	main
  22              		.thumb
  23              		.thumb_func
  24              		.type	main, %function
  25              	main:
  26              	.LFB64:
  27              		.file 1 "main.c"
   1:main.c        **** /* ========================================
   2:main.c        ****  *
   3:main.c        ****  * Copyright Quang Minh Vu Metropolia UAS
   4:main.c        ****  * All Rights Reserved
   5:main.c        ****  * UNPUBLISHED, LICENSED SOFTWARE.
   6:main.c        ****  *
   7:main.c        ****  * CC - BY - SA 4.0
   8:main.c        ****  *   
   9:main.c        ****  * PSoC fundamentals Exercise 1
  10:main.c        ****  * Blink LED approx. 1.s when button is pressed
  11:main.c        ****  * 
  12:main.c        ****  * ========================================
  13:main.c        **** */
  14:main.c        **** #include "project.h"
  15:main.c        **** #include "stdio.h"
  16:main.c        **** 
  17:main.c        **** int main(void)
  18:main.c        **** {
  28              		.loc 1 18 0
  29              		.cfi_startproc
  30              		@ args = 0, pretend = 0, frame = 32
  31              		@ frame_needed = 0, uses_anonymous_args = 0
  32 0000 30B5     		push	{r4, r5, lr}
  33              		.cfi_def_cfa_offset 12
  34              		.cfi_offset 4, -12
  35              		.cfi_offset 5, -8
  36              		.cfi_offset 14, -4
  37 0002 89B0     		sub	sp, sp, #36
  38              		.cfi_def_cfa_offset 48
  19:main.c        ****     CyGlobalIntEnable; /* Enable global interrupts. */
ARM GAS  C:\Users\DELL\AppData\Local\Temp\ccWabQ1D.s 			page 2


  39              		.loc 1 19 0
  40              		.syntax unified
  41              	@ 19 "main.c" 1
  42 0004 62B6     		CPSIE   i
  43              	@ 0 "" 2
  44              	.LVL0:
  20:main.c        **** 
  21:main.c        ****     /* Place your initialization/startup code here (e.g. MyInst_Start()) */
  22:main.c        ****     uint8 count = 0;
  23:main.c        ****     char str[20] = {"Quang Vu\r\n"};
  45              		.loc 1 23 0
  46              		.thumb
  47              		.syntax unified
  48 0006 194A     		ldr	r2, .L6
  49 0008 03AB     		add	r3, sp, #12
  50 000a 07CA     		ldmia	r2, {r0, r1, r2}
  51 000c 03C3     		stmia	r3!, {r0, r1}
  52 000e 23F8022B 		strh	r2, [r3], #2	@ movhi
  53 0012 120C     		lsrs	r2, r2, #16
  54 0014 1A70     		strb	r2, [r3]
  55 0016 0024     		movs	r4, #0
  56 0018 CDF81740 		str	r4, [sp, #23]	@ unaligned
  57 001c CDF81B40 		str	r4, [sp, #27]	@ unaligned
  58 0020 8DF81F40 		strb	r4, [sp, #31]
  24:main.c        ****     
  25:main.c        ****     UART_Start();
  59              		.loc 1 25 0
  60 0024 FFF7FEFF 		bl	UART_Start
  61              	.LVL1:
  26:main.c        ****     /* Transmit name terminated with CR/LF (string) on the beginning of the program */
  27:main.c        ****     UART_PutString(str);
  62              		.loc 1 27 0
  63 0028 03A8     		add	r0, sp, #12
  64 002a FFF7FEFF 		bl	UART_PutString
  65              	.LVL2:
  66              	.L2:
  28:main.c        ****     for(;;)
  29:main.c        ****     {
  30:main.c        ****         if (!Button_Read()) {
  67              		.loc 1 30 0
  68 002e FFF7FEFF 		bl	Button_Read
  69              	.LVL3:
  70 0032 50B9     		cbnz	r0, .L3
  31:main.c        ****             LED1_Write(count++ % 2);
  71              		.loc 1 31 0
  72 0034 651C     		adds	r5, r4, #1
  73 0036 EDB2     		uxtb	r5, r5
  74              	.LVL4:
  75 0038 04F00100 		and	r0, r4, #1
  76 003c FFF7FEFF 		bl	LED1_Write
  77              	.LVL5:
  32:main.c        ****             CyDelay(500);
  78              		.loc 1 32 0
  79 0040 4FF4FA70 		mov	r0, #500
  80 0044 FFF7FEFF 		bl	CyDelay
  81              	.LVL6:
  31:main.c        ****             LED1_Write(count++ % 2);
ARM GAS  C:\Users\DELL\AppData\Local\Temp\ccWabQ1D.s 			page 3


  82              		.loc 1 31 0
  83 0048 2C46     		mov	r4, r5
  84              	.LVL7:
  85              	.L3:
  33:main.c        ****         }
  34:main.c        ****         LED1_Write(0); /* Turn off LED when the button is released */
  86              		.loc 1 34 0
  87 004a 0020     		movs	r0, #0
  88 004c FFF7FEFF 		bl	LED1_Write
  89              	.LVL8:
  35:main.c        ****         if (UART_GetChar()) { /* On UART read */
  90              		.loc 1 35 0
  91 0050 FFF7FEFF 		bl	UART_GetChar
  92              	.LVL9:
  93 0054 0028     		cmp	r0, #0
  94 0056 EAD0     		beq	.L2
  95              	.LBB2:
  36:main.c        ****             char buffer[5];
  37:main.c        ****             sprintf(buffer, "%d ", count/2); /* Save int to string buffer, divide by 2 for number o
  96              		.loc 1 37 0
  97 0058 6208     		lsrs	r2, r4, #1
  98 005a 0549     		ldr	r1, .L6+4
  99 005c 01A8     		add	r0, sp, #4
 100 005e FFF7FEFF 		bl	sprintf
 101              	.LVL10:
  38:main.c        ****             UART_PutString(buffer); /* Print to screen */
 102              		.loc 1 38 0
 103 0062 01A8     		add	r0, sp, #4
 104 0064 FFF7FEFF 		bl	UART_PutString
 105              	.LVL11:
 106 0068 E1E7     		b	.L2
 107              	.L7:
 108 006a 00BF     		.align	2
 109              	.L6:
 110 006c 00000000 		.word	.LANCHOR0
 111 0070 00000000 		.word	.LC1
 112              	.LBE2:
 113              		.cfi_endproc
 114              	.LFE64:
 115              		.size	main, .-main
 116              		.section	.rodata
 117              		.align	2
 118              		.set	.LANCHOR0,. + 0
 119              	.LC0:
 120 0000 5175616E 		.ascii	"Quang Vu\015\012\000"
 120      67205675 
 120      0D0A00
 121 000b 00000000 		.space	9
 121      00000000 
 121      00
 122              		.section	.rodata.str1.4,"aMS",%progbits,1
 123              		.align	2
 124              	.LC1:
 125 0000 25642000 		.ascii	"%d \000"
 126              		.text
 127              	.Letext0:
 128              		.file 2 "d:\\school\\summer 2020\\soc\\psoc creator\\4.2\\psoc creator\\import\\gnu\\arm\\5.4.1\\a
ARM GAS  C:\Users\DELL\AppData\Local\Temp\ccWabQ1D.s 			page 4


 129              		.file 3 "d:\\school\\summer 2020\\soc\\psoc creator\\4.2\\psoc creator\\import\\gnu\\arm\\5.4.1\\a
 130              		.file 4 "Generated_Source\\PSoC5/cytypes.h"
 131              		.file 5 "d:\\school\\summer 2020\\soc\\psoc creator\\4.2\\psoc creator\\import\\gnu\\arm\\5.4.1\\a
 132              		.file 6 "Generated_Source\\PSoC5/UART.h"
 133              		.file 7 "Generated_Source\\PSoC5/Button.h"
 134              		.file 8 "Generated_Source\\PSoC5/LED1.h"
 135              		.file 9 "Generated_Source\\PSoC5/CyLib.h"
 136              		.file 10 "Generated_Source\\PSoC5/core_cm3.h"